target datalayout = "e-m:e-p270:32:32-p271:32:32-p272:64:64-i64:64-i128:128-f80:128-n8:16:32:64-S128"
target triple = "x86_64-pc-linux-gnu"

%struct.MRef = type { i64 }
%struct.GCRef = type { i64 }
%union.TValue = type { i64 }
%struct.GCproto = type { %struct.GCRef, i8, i8, i8, i8, i32, i32, %struct.GCRef, %struct.MRef, %struct.MRef, i32, i32, i32, i8, i8, i16, %struct.GCRef, i32, i32, %struct.MRef, %struct.MRef, %struct.MRef }
%struct.GCfuncC = type { %struct.GCRef, i8, i8, i8, i8, %struct.GCRef, %struct.GCRef, %struct.MRef, ptr, [1 x %union.TValue] }
%struct.GCfuncL = type { %struct.GCRef, i8, i8, i8, i8, %struct.GCRef, %struct.GCRef, %struct.MRef, [1 x %struct.GCRef] }

@.str.12 = private unnamed_addr constant [10 x i8] c"%s:%d: %s\00", align 1
@.str.13 = private unnamed_addr constant [3 x i8] c"%s\00", align 1

; Function Attrs: nounwind uwtable
define hidden i32 @lj_debug_line(ptr noundef %0, i32 noundef %1) #0 {
  %3 = alloca i32, align 4
  %4 = alloca ptr, align 8
  %5 = alloca i32, align 4
  %6 = alloca ptr, align 8
  %7 = alloca i32, align 4
  %8 = alloca i32, align 4
  store ptr %0, ptr %4, align 8, !tbaa !24
  store i32 %1, ptr %5, align 4, !tbaa !9
  call void @llvm.lifetime.start.p0(i64 8, ptr %6) #8
  %9 = load ptr, ptr %4, align 8, !tbaa !24
  %10 = getelementptr inbounds nuw %struct.GCproto, ptr %9, i32 0, i32 19
  %11 = getelementptr inbounds nuw %struct.MRef, ptr %10, i32 0, i32 0
  %12 = load i64, ptr %11, align 8, !tbaa !26
  %13 = inttoptr i64 %12 to ptr
  store ptr %13, ptr %6, align 8, !tbaa !29
  %14 = load i32, ptr %5, align 4, !tbaa !9
  %15 = load ptr, ptr %4, align 8, !tbaa !24
  %16 = getelementptr inbounds nuw %struct.GCproto, ptr %15, i32 0, i32 5
  %17 = load i32, ptr %16, align 4, !tbaa !30
  %18 = icmp ule i32 %14, %17
  br i1 %18, label %19, label %80

19:                                               ; preds = %2
  %20 = load ptr, ptr %6, align 8, !tbaa !29
  %21 = icmp ne ptr %20, null
  br i1 %21, label %22, label %80

22:                                               ; preds = %19
  call void @llvm.lifetime.start.p0(i64 4, ptr %7) #8
  %23 = load ptr, ptr %4, align 8, !tbaa !24
  %24 = getelementptr inbounds nuw %struct.GCproto, ptr %23, i32 0, i32 17
  %25 = load i32, ptr %24, align 8, !tbaa !31
  store i32 %25, ptr %7, align 4, !tbaa !9
  %26 = load i32, ptr %5, align 4, !tbaa !9
  %27 = load ptr, ptr %4, align 8, !tbaa !24
  %28 = getelementptr inbounds nuw %struct.GCproto, ptr %27, i32 0, i32 5
  %29 = load i32, ptr %28, align 4, !tbaa !30
  %30 = icmp eq i32 %26, %29
  br i1 %30, label %31, label %37

31:                                               ; preds = %22
  %32 = load i32, ptr %7, align 4, !tbaa !9
  %33 = load ptr, ptr %4, align 8, !tbaa !24
  %34 = getelementptr inbounds nuw %struct.GCproto, ptr %33, i32 0, i32 18
  %35 = load i32, ptr %34, align 4, !tbaa !32
  %36 = add nsw i32 %32, %35
  store i32 %36, ptr %3, align 4
  store i32 1, ptr %8, align 4
  br label %79

37:                                               ; preds = %22
  %38 = load i32, ptr %5, align 4, !tbaa !9
  %39 = add i32 %38, -1
  store i32 %39, ptr %5, align 4, !tbaa !9
  %40 = icmp eq i32 %38, 0
  br i1 %40, label %41, label %43

41:                                               ; preds = %37
  %42 = load i32, ptr %7, align 4, !tbaa !9
  store i32 %42, ptr %3, align 4
  store i32 1, ptr %8, align 4
  br label %79

43:                                               ; preds = %37
  %44 = load ptr, ptr %4, align 8, !tbaa !24
  %45 = getelementptr inbounds nuw %struct.GCproto, ptr %44, i32 0, i32 18
  %46 = load i32, ptr %45, align 4, !tbaa !32
  %47 = icmp slt i32 %46, 256
  br i1 %47, label %48, label %57

48:                                               ; preds = %43
  %49 = load i32, ptr %7, align 4, !tbaa !9
  %50 = load ptr, ptr %6, align 8, !tbaa !29
  %51 = load i32, ptr %5, align 4, !tbaa !9
  %52 = zext i32 %51 to i64
  %53 = getelementptr inbounds nuw i8, ptr %50, i64 %52
  %54 = load i8, ptr %53, align 1, !tbaa !21
  %55 = zext i8 %54 to i32
  %56 = add nsw i32 %49, %55
  store i32 %56, ptr %3, align 4
  store i32 1, ptr %8, align 4
  br label %79

57:                                               ; preds = %43
  %58 = load ptr, ptr %4, align 8, !tbaa !24
  %59 = getelementptr inbounds nuw %struct.GCproto, ptr %58, i32 0, i32 18
  %60 = load i32, ptr %59, align 4, !tbaa !32
  %61 = icmp slt i32 %60, 65536
  br i1 %61, label %62, label %71

62:                                               ; preds = %57
  %63 = load i32, ptr %7, align 4, !tbaa !9
  %64 = load ptr, ptr %6, align 8, !tbaa !29
  %65 = load i32, ptr %5, align 4, !tbaa !9
  %66 = zext i32 %65 to i64
  %67 = getelementptr inbounds nuw i16, ptr %64, i64 %66
  %68 = load i16, ptr %67, align 2, !tbaa !33
  %69 = zext i16 %68 to i32
  %70 = add nsw i32 %63, %69
  store i32 %70, ptr %3, align 4
  store i32 1, ptr %8, align 4
  br label %79

71:                                               ; preds = %57
  %72 = load i32, ptr %7, align 4, !tbaa !9
  %73 = load ptr, ptr %6, align 8, !tbaa !29
  %74 = load i32, ptr %5, align 4, !tbaa !9
  %75 = zext i32 %74 to i64
  %76 = getelementptr inbounds nuw i32, ptr %73, i64 %75
  %77 = load i32, ptr %76, align 4, !tbaa !9
  %78 = add nsw i32 %72, %77
  store i32 %78, ptr %3, align 4
  store i32 1, ptr %8, align 4
  br label %79

79:                                               ; preds = %71, %62, %48, %41, %31
  call void @llvm.lifetime.end.p0(i64 4, ptr %7) #8
  br label %81

80:                                               ; preds = %19, %2
  store i32 0, ptr %3, align 4
  store i32 1, ptr %8, align 4
  br label %81

81:                                               ; preds = %80, %79
  call void @llvm.lifetime.end.p0(i64 8, ptr %6) #8
  %82 = load i32, ptr %3, align 4
  ret i32 %82
}

; Function Attrs: nounwind uwtable
define internal i32 @debug_frameline(ptr noundef %0, ptr noundef %1, ptr noundef %2) #0 {
  %4 = alloca i32, align 4
  %5 = alloca ptr, align 8
  %6 = alloca ptr, align 8
  %7 = alloca ptr, align 8
  %8 = alloca i32, align 4
  %9 = alloca ptr, align 8
  %10 = alloca i32, align 4
  store ptr %0, ptr %5, align 8, !tbaa !4
  store ptr %1, ptr %6, align 8, !tbaa !42
  store ptr %2, ptr %7, align 8, !tbaa !19
  call void @llvm.lifetime.start.p0(i64 4, ptr %8) #8
  %11 = load ptr, ptr %5, align 8, !tbaa !4
  %12 = load ptr, ptr %6, align 8, !tbaa !42
  %13 = load ptr, ptr %7, align 8, !tbaa !19
  %14 = call i32 @debug_framepc(ptr noundef %11, ptr noundef %12, ptr noundef %13)
  store i32 %14, ptr %8, align 4, !tbaa !9
  %15 = load i32, ptr %8, align 4, !tbaa !9
  %16 = icmp ne i32 %15, -1
  br i1 %16, label %17, label %27

17:                                               ; preds = %3
  call void @llvm.lifetime.start.p0(i64 8, ptr %9) #8
  %18 = load ptr, ptr %6, align 8, !tbaa !42
  %19 = getelementptr inbounds nuw %struct.GCfuncL, ptr %18, i32 0, i32 7
  %20 = getelementptr inbounds nuw %struct.MRef, ptr %19, i32 0, i32 0
  %21 = load i64, ptr %20, align 8, !tbaa !21
  %22 = inttoptr i64 %21 to ptr
  %23 = getelementptr inbounds i8, ptr %22, i64 -104
  store ptr %23, ptr %9, align 8, !tbaa !24
  %24 = load ptr, ptr %9, align 8, !tbaa !24
  %25 = load i32, ptr %8, align 4, !tbaa !9
  %26 = call i32 @lj_debug_line(ptr noundef %24, i32 noundef %25)
  store i32 %26, ptr %4, align 4
  store i32 1, ptr %10, align 4
  call void @llvm.lifetime.end.p0(i64 8, ptr %9) #8
  br label %28

27:                                               ; preds = %3
  store i32 -1, ptr %4, align 4
  store i32 1, ptr %10, align 4
  br label %28

28:                                               ; preds = %27, %17
  call void @llvm.lifetime.end.p0(i64 4, ptr %8) #8
  %29 = load i32, ptr %4, align 4
  ret i32 %29
}

; Function Attrs: nounwind uwtable
define hidden void @lj_debug_addloc(ptr noundef %0, ptr noundef %1, ptr noundef %2, ptr noundef %3) #0 {
  %5 = alloca ptr, align 8
  %6 = alloca ptr, align 8
  %7 = alloca ptr, align 8
  %8 = alloca ptr, align 8
  %9 = alloca ptr, align 8
  %10 = alloca i32, align 4
  %11 = alloca ptr, align 8
  %12 = alloca [60 x i8], align 16
  %13 = alloca i32, align 4
  store ptr %0, ptr %5, align 8, !tbaa !4
  store ptr %1, ptr %6, align 8, !tbaa !35
  store ptr %2, ptr %7, align 8, !tbaa !19
  store ptr %3, ptr %8, align 8, !tbaa !19
  %14 = load ptr, ptr %7, align 8, !tbaa !19
  %15 = icmp ne ptr %14, null
  br i1 %15, label %16, label %64

16:                                               ; preds = %4
  call void @llvm.lifetime.start.p0(i64 8, ptr %9) #8
  %17 = load ptr, ptr %7, align 8, !tbaa !19
  %18 = getelementptr inbounds %union.TValue, ptr %17, i64 -1
  %19 = getelementptr inbounds nuw %struct.GCRef, ptr %18, i32 0, i32 0
  %20 = load i64, ptr %19, align 8, !tbaa !21
  %21 = and i64 %20, 140737488355327
  %22 = inttoptr i64 %21 to ptr
  store ptr %22, ptr %9, align 8, !tbaa !42
  %23 = load ptr, ptr %9, align 8, !tbaa !42
  %24 = getelementptr inbounds nuw %struct.GCfuncC, ptr %23, i32 0, i32 3
  %25 = load i8, ptr %24, align 2, !tbaa !21
  %26 = zext i8 %25 to i32
  %27 = icmp eq i32 %26, 0
  br i1 %27, label %28, label %60

28:                                               ; preds = %16
  call void @llvm.lifetime.start.p0(i64 4, ptr %10) #8
  %29 = load ptr, ptr %5, align 8, !tbaa !4
  %30 = load ptr, ptr %9, align 8, !tbaa !42
  %31 = load ptr, ptr %8, align 8, !tbaa !19
  %32 = call i32 @debug_frameline(ptr noundef %29, ptr noundef %30, ptr noundef %31)
  store i32 %32, ptr %10, align 4, !tbaa !9
  %33 = load i32, ptr %10, align 4, !tbaa !9
  %34 = icmp sge i32 %33, 0
  br i1 %34, label %35, label %56

35:                                               ; preds = %28
  call void @llvm.lifetime.start.p0(i64 8, ptr %11) #8
  %36 = load ptr, ptr %9, align 8, !tbaa !42
  %37 = getelementptr inbounds nuw %struct.GCfuncL, ptr %36, i32 0, i32 7
  %38 = getelementptr inbounds nuw %struct.MRef, ptr %37, i32 0, i32 0
  %39 = load i64, ptr %38, align 8, !tbaa !21
  %40 = inttoptr i64 %39 to ptr
  %41 = getelementptr inbounds i8, ptr %40, i64 -104
  store ptr %41, ptr %11, align 8, !tbaa !24
  call void @llvm.lifetime.start.p0(i64 60, ptr %12) #8
  %42 = getelementptr inbounds [60 x i8], ptr %12, i64 0, i64 0
  %43 = load ptr, ptr %11, align 8, !tbaa !24
  %44 = getelementptr inbounds nuw %struct.GCproto, ptr %43, i32 0, i32 16
  %45 = getelementptr inbounds nuw %struct.GCRef, ptr %44, i32 0, i32 0
  %46 = load i64, ptr %45, align 8, !tbaa !71
  %47 = inttoptr i64 %46 to ptr
  %48 = load ptr, ptr %11, align 8, !tbaa !24
  %49 = getelementptr inbounds nuw %struct.GCproto, ptr %48, i32 0, i32 17
  %50 = load i32, ptr %49, align 8, !tbaa !31
  call void @lj_debug_shortname(ptr noundef %42, ptr noundef %47, i32 noundef %50)
  %51 = load ptr, ptr %5, align 8, !tbaa !4
  %52 = getelementptr inbounds [60 x i8], ptr %12, i64 0, i64 0
  %53 = load i32, ptr %10, align 4, !tbaa !9
  %54 = load ptr, ptr %6, align 8, !tbaa !35
  %55 = call ptr (ptr, ptr, ...) @lj_strfmt_pushf(ptr noundef %51, ptr noundef @.str.12, ptr noundef %52, i32 noundef %53, ptr noundef %54)
  store i32 1, ptr %13, align 4
  call void @llvm.lifetime.end.p0(i64 60, ptr %12) #8
  call void @llvm.lifetime.end.p0(i64 8, ptr %11) #8
  br label %57

56:                                               ; preds = %28
  store i32 0, ptr %13, align 4
  br label %57

57:                                               ; preds = %56, %35
  call void @llvm.lifetime.end.p0(i64 4, ptr %10) #8
  %58 = load i32, ptr %13, align 4
  switch i32 %58, label %61 [
    i32 0, label %59
  ]

59:                                               ; preds = %57
  br label %60

60:                                               ; preds = %59, %16
  store i32 0, ptr %13, align 4
  br label %61

61:                                               ; preds = %60, %57
  call void @llvm.lifetime.end.p0(i64 8, ptr %9) #8
  %62 = load i32, ptr %13, align 4
  switch i32 %62, label %69 [
    i32 0, label %63
    i32 1, label %68
  ]

63:                                               ; preds = %61
  br label %64

64:                                               ; preds = %63, %4
  %65 = load ptr, ptr %5, align 8, !tbaa !4
  %66 = load ptr, ptr %6, align 8, !tbaa !35
  %67 = call ptr (ptr, ptr, ...) @lj_strfmt_pushf(ptr noundef %65, ptr noundef @.str.13, ptr noundef %66)
  br label %68

68:                                               ; preds = %64, %61
  ret void

69:                                               ; preds = %61
  unreachable
}