; Function Attrs: nounwind uwtable
define hidden void @lj_debug_addloc(ptr noundef %0, ptr noundef %1, ptr noundef readonly captures(address_is_null) %2, ptr noundef captures(address) %3) local_unnamed_addr #4 {
  %5 = alloca [60 x i8], align 16
  %.not = icmp eq ptr %2, null
  br i1 %.not, label %.critedge.thread, label %6

6:                                                ; preds = %4
  %7 = getelementptr inbounds i8, ptr %2, i64 -8
  %8 = load i64, ptr %7, align 8, !tbaa !15
  %9 = and i64 %8, 140737488355327
  %10 = inttoptr i64 %9 to ptr
  %11 = getelementptr inbounds nuw i8, ptr %10, i64 10
  %12 = load i8, ptr %11, align 2, !tbaa !15
  %13 = icmp eq i8 %12, 0
  br i1 %13, label %14, label %.critedge.thread

14:                                               ; preds = %6
  %15 = tail call fastcc i32 @debug_framepc(ptr noundef readonly %0, ptr noundef nonnull readonly %10, ptr noundef %3)
  %.not.i = icmp eq i32 %15, -1
  br i1 %.not.i, label %.critedge.thread, label %16

16:                                               ; preds = %14
  %17 = getelementptr inbounds nuw i8, ptr %10, i64 32
  %18 = load i64, ptr %17, align 8, !tbaa !15
  %19 = inttoptr i64 %18 to ptr
  %20 = getelementptr inbounds i8, ptr %19, i64 -24
  %21 = load i64, ptr %20, align 8, !tbaa !19
  %22 = inttoptr i64 %21 to ptr
  %23 = getelementptr inbounds i8, ptr %19, i64 -92
  %24 = load i32, ptr %23, align 4, !tbaa !22
  %25 = icmp ule i32 %15, %24
  %26 = icmp ne i64 %21, 0
  %or.cond.i.i = select i1 %25, i1 %26, i1 false
  %27 = getelementptr inbounds i8, ptr %19, i64 -32
  %28 = load i32, ptr %27, align 8, !tbaa !23
  br i1 %or.cond.i.i, label %29, label %.critedge

29:                                               ; preds = %16
  %30 = icmp eq i32 %15, %24
  br i1 %30, label %31, label %35

31:                                               ; preds = %29
  %32 = getelementptr inbounds i8, ptr %19, i64 -28
  %33 = load i32, ptr %32, align 4, !tbaa !24
  %34 = add nsw i32 %33, %28
  br label %debug_frameline.exit

35:                                               ; preds = %29
  %36 = add i32 %15, -1
  %37 = icmp eq i32 %15, 0
  br i1 %37, label %debug_frameline.exit, label %38

38:                                               ; preds = %35
  %39 = getelementptr inbounds i8, ptr %19, i64 -28
  %40 = load i32, ptr %39, align 4, !tbaa !24
  %41 = icmp slt i32 %40, 256
  br i1 %41, label %42, label %48

42:                                               ; preds = %38
  %43 = zext i32 %36 to i64
  %44 = getelementptr inbounds nuw i8, ptr %22, i64 %43
  %45 = load i8, ptr %44, align 1, !tbaa !15
  %46 = zext i8 %45 to i32
  %47 = add nsw i32 %28, %46
  br label %debug_frameline.exit

48:                                               ; preds = %38
  %49 = icmp samesign ult i32 %40, 65536
  %50 = zext i32 %36 to i64
  br i1 %49, label %51, label %56

51:                                               ; preds = %48
  %52 = getelementptr inbounds nuw i16, ptr %22, i64 %50
  %53 = load i16, ptr %52, align 2, !tbaa !25
  %54 = zext i16 %53 to i32
  %55 = add nsw i32 %28, %54
  br label %debug_frameline.exit

56:                                               ; preds = %48
  %57 = getelementptr inbounds nuw i32, ptr %22, i64 %50
  %58 = load i32, ptr %57, align 4, !tbaa !18
  %59 = add nsw i32 %58, %28
  br label %debug_frameline.exit

debug_frameline.exit:                             ; preds = %31, %35, %42, %51, %56
  %.0.i = phi i32 [ %34, %31 ], [ %47, %42 ], [ %55, %51 ], [ %59, %56 ], [ %28, %35 ]
  %60 = icmp slt i32 %.0.i, 0
  br i1 %60, label %.critedge.thread, label %.critedge

.critedge:                                        ; preds = %16, %debug_frameline.exit
  %.0.i21 = phi i32 [ %.0.i, %debug_frameline.exit ], [ 0, %16 ]
  call void @llvm.lifetime.start.p0(i64 60, ptr nonnull %5) #11
  %61 = getelementptr inbounds i8, ptr %19, i64 -40
  %62 = load i64, ptr %61, align 8, !tbaa !54
  %63 = inttoptr i64 %62 to ptr
  call void @lj_debug_shortname(ptr noundef nonnull %5, ptr noundef %63, i32 noundef %28)
  %64 = call ptr (ptr, ptr, ...) @lj_strfmt_pushf(ptr noundef %0, ptr noundef nonnull @.str.12, ptr noundef nonnull %5, i32 noundef %.0.i21, ptr noundef %1) #11
  call void @llvm.lifetime.end.p0(i64 60, ptr nonnull %5) #11
  br label %66

.critedge.thread:                                 ; preds = %14, %6, %debug_frameline.exit, %4
  %65 = tail call ptr (ptr, ptr, ...) @lj_strfmt_pushf(ptr noundef %0, ptr noundef nonnull @.str.13, ptr noundef %1) #11
  br label %66

66:                                               ; preds = %.critedge, %.critedge.thread
  ret void
}